; Function Attrs: nounwind uwtable
define ptr @l___private_Lean_Meta_Tactic_Grind_Arith_Cutsat_Search_0__Lean_Meta_Grind_Arith_Cutsat_assignElimVars___lambda__1(ptr readnone captures(none) %0, ptr noundef %1, ptr noundef %2, ptr noundef %3, ptr noundef %4, ptr noundef %5, ptr noundef %6, ptr noundef %7, ptr noundef %8, ptr noundef %9) local_unnamed_addr #1 {
  %11 = tail call ptr @l_Lean_Meta_Grind_Arith_Cutsat_get_x27(ptr noundef %1, ptr noundef %2, ptr noundef %3, ptr noundef %4, ptr noundef %5, ptr noundef %6, ptr noundef %7, ptr noundef %8, ptr noundef %9) #6
  %12 = getelementptr inbounds nuw i8, ptr %11, i64 8
  %13 = load ptr, ptr %12, align 8, !tbaa !11
  %14 = ptrtoint ptr %13 to i64
  %15 = and i64 %14, 1
  %.not = icmp eq i64 %15, 0
  br i1 %.not, label %16, label %lean_inc.exit32

16:                                               ; preds = %10
  %.val.i = load i32, ptr %13, align 4, !tbaa !6
  %17 = icmp sgt i32 %.val.i, 0
  br i1 %17, label %18, label %20, !prof !5

18:                                               ; preds = %16
  %19 = add nuw i32 %.val.i, 1
  store i32 %19, ptr %13, align 4, !tbaa !6
  br label %lean_inc.exit32

20:                                               ; preds = %16
  %.not.i37 = icmp eq i32 %.val.i, 0
  br i1 %.not.i37, label %lean_inc.exit32, label %21

21:                                               ; preds = %20
  tail call void @lean_inc_ref_cold(ptr noundef nonnull %13) #6
  br label %lean_inc.exit32

lean_inc.exit32:                                  ; preds = %21, %20, %18, %10
  %22 = getelementptr inbounds nuw i8, ptr %11, i64 16
  %23 = load ptr, ptr %22, align 8, !tbaa !11
  %24 = ptrtoint ptr %23 to i64
  %25 = and i64 %24, 1
  %.not44 = icmp eq i64 %25, 0
  br i1 %.not44, label %26, label %lean_inc.exit31

26:                                               ; preds = %lean_inc.exit32
  %.val.i38 = load i32, ptr %23, align 4, !tbaa !6
  %27 = icmp sgt i32 %.val.i38, 0
  br i1 %27, label %28, label %30, !prof !5

28:                                               ; preds = %26
  %29 = add nuw i32 %.val.i38, 1
  store i32 %29, ptr %23, align 4, !tbaa !6
  br label %lean_inc.exit31

30:                                               ; preds = %26
  %.not.i39 = icmp eq i32 %.val.i38, 0
  br i1 %.not.i39, label %lean_inc.exit31, label %31

31:                                               ; preds = %30
  tail call void @lean_inc_ref_cold(ptr noundef nonnull %23) #6
  br label %lean_inc.exit31

lean_inc.exit31:                                  ; preds = %31, %30, %28, %lean_inc.exit32
  %32 = ptrtoint ptr %11 to i64
  %33 = and i64 %32, 1
  %.not45 = icmp eq i64 %33, 0
  br i1 %.not45, label %34, label %lean_dec.exit30

34:                                               ; preds = %lean_inc.exit31
  %35 = load i32, ptr %11, align 4, !tbaa !6
  %36 = icmp sgt i32 %35, 1
  br i1 %36, label %37, label %39, !prof !5

37:                                               ; preds = %34
  %38 = add nsw i32 %35, -1
  store i32 %38, ptr %11, align 4, !tbaa !6
  br label %lean_dec.exit30

39:                                               ; preds = %34
  %.not.i = icmp eq i32 %35, 0
  br i1 %.not.i, label %lean_dec.exit30, label %40

40:                                               ; preds = %39
  tail call void @lean_dec_ref_cold(ptr noundef nonnull %11) #6
  br label %lean_dec.exit30

lean_dec.exit30:                                  ; preds = %40, %39, %37, %lean_inc.exit31
  %41 = getelementptr inbounds nuw i8, ptr %13, i64 88
  %42 = load ptr, ptr %41, align 8, !tbaa !11
  %43 = ptrtoint ptr %42 to i64
  %44 = and i64 %43, 1
  %.not46 = icmp eq i64 %44, 0
  br i1 %.not46, label %45, label %lean_inc.exit

45:                                               ; preds = %lean_dec.exit30
  %.val.i41 = load i32, ptr %42, align 4, !tbaa !6
  %46 = icmp sgt i32 %.val.i41, 0
  br i1 %46, label %47, label %49, !prof !5

47:                                               ; preds = %45
  %48 = add nuw i32 %.val.i41, 1
  store i32 %48, ptr %42, align 4, !tbaa !6
  br label %lean_inc.exit

49:                                               ; preds = %45
  %.not.i42 = icmp eq i32 %.val.i41, 0
  br i1 %.not.i42, label %lean_inc.exit, label %50

50:                                               ; preds = %49
  tail call void @lean_inc_ref_cold(ptr noundef nonnull %42) #6
  br label %lean_inc.exit

lean_inc.exit:                                    ; preds = %50, %49, %47, %lean_dec.exit30
  br i1 %.not, label %51, label %lean_dec.exit29

51:                                               ; preds = %lean_inc.exit
  %52 = load i32, ptr %13, align 4, !tbaa !6
  %53 = icmp sgt i32 %52, 1
  br i1 %53, label %54, label %56, !prof !5

54:                                               ; preds = %51
  %55 = add nsw i32 %52, -1
  store i32 %55, ptr %13, align 4, !tbaa !6
  br label %lean_dec.exit29

56:                                               ; preds = %51
  %.not.i33 = icmp eq i32 %52, 0
  br i1 %.not.i33, label %lean_dec.exit29, label %57

57:                                               ; preds = %56
  tail call void @lean_dec_ref_cold(ptr noundef nonnull %13) #6
  br label %lean_dec.exit29

lean_dec.exit29:                                  ; preds = %57, %56, %54, %lean_inc.exit
  %58 = tail call ptr @l___private_Lean_Meta_Tactic_Grind_Arith_Cutsat_Search_0__Lean_Meta_Grind_Arith_Cutsat_assignElimVars_go(ptr noundef %42, ptr noundef %1, ptr noundef %2, ptr noundef %3, ptr noundef %4, ptr noundef %5, ptr noundef %6, ptr noundef %7, ptr noundef %8, ptr noundef %23)
  br i1 %.not46, label %59, label %lean_dec.exit

59:                                               ; preds = %lean_dec.exit29
  %60 = load i32, ptr %42, align 4, !tbaa !6
  %61 = icmp sgt i32 %60, 1
  br i1 %61, label %62, label %64, !prof !5

62:                                               ; preds = %59
  %63 = add nsw i32 %60, -1
  store i32 %63, ptr %42, align 4, !tbaa !6
  br label %lean_dec.exit

64:                                               ; preds = %59
  %.not.i35 = icmp eq i32 %60, 0
  br i1 %.not.i35, label %lean_dec.exit, label %65

65:                                               ; preds = %64
  tail call void @lean_dec_ref_cold(ptr noundef nonnull %42) #6
  br label %lean_dec.exit

lean_dec.exit:                                    ; preds = %65, %64, %62, %lean_dec.exit29
  ret ptr %58
}